target datalayout = "e-m:e-p270:32:32-p271:32:32-p272:64:64-i64:64-i128:128-f80:128-n8:16:32:64-S128"
target triple = "x86_64-pc-linux-gnu"

%struct.png_struct_def = type { [1 x %struct.__jmp_buf_tag], ptr, ptr, i64, ptr, ptr, ptr, ptr, ptr, ptr, ptr, ptr, ptr, i8, i8, i32, i32, i32, i32, %struct.z_stream_s, ptr, i32, i32, i32, i32, i32, i32, i32, i32, i32, i32, i32, i32, i32, i32, i32, i32, i32, i32, i32, i32, i64, i32, i32, i32, ptr, ptr, ptr, ptr, i64, i32, i32, ptr, i16, i32, i16, i8, i8, i8, i8, i8, i8, i8, i8, i8, i8, i8, i8, i8, i8, i8, i16, i8, i32, %struct.png_color_16_struct, %struct.png_color_16_struct, ptr, i32, i32, i32, i32, ptr, ptr, ptr, ptr, ptr, ptr, %struct.png_color_8_struct, %struct.png_color_8_struct, ptr, %struct.png_color_16_struct, ptr, ptr, ptr, ptr, ptr, ptr, ptr, ptr, ptr, i32, i32, i64, i64, i64, i64, i32, i32, ptr, ptr, i32, [29 x i8], i32, ptr, ptr, i32, i32, ptr, i8, i8, i16, i16, ptr, i32, i8, ptr, ptr, ptr, ptr, ptr, ptr, ptr, i8, i32, i32, i32, i64, %struct.png_unknown_chunk_t, i64, ptr, i64, i32, i32, ptr, [4 x ptr], %struct.png_colorspace }
%struct.__jmp_buf_tag = type { [8 x i64], i32, %struct.__sigset_t }
%struct.__sigset_t = type { [16 x i64] }
%struct.z_stream_s = type { ptr, i32, i64, ptr, i32, i64, ptr, ptr, ptr, ptr, ptr, i32, i64, i64 }
%struct.png_color_8_struct = type { i8, i8, i8, i8, i8 }
%struct.png_color_16_struct = type { i8, i16, i16, i16, i16 }
%struct.png_unknown_chunk_t = type { [5 x i8], ptr, i64, i8 }
%struct.png_colorspace = type { i32, %struct.png_xy, %struct.png_XYZ, i16, i16 }
%struct.png_xy = type { i32, i32, i32, i32, i32, i32, i32, i32 }
%struct.png_XYZ = type { i32, i32, i32, i32, i32, i32, i32, i32, i32 }

@.str = private unnamed_addr constant [28 x i8] c"Call to NULL write function\00", align 1
@.str.1 = private unnamed_addr constant [12 x i8] c"Write Error\00", align 1
@.str.2 = private unnamed_addr constant [68 x i8] c"Can't set both read_data_fn and write_data_fn in the same structure\00", align 1

; Function Attrs: nounwind uwtable
define void @png_write_data(ptr noalias noundef %0, ptr noundef %1, i64 noundef %2) #0 {
  %4 = alloca ptr, align 8
  %5 = alloca ptr, align 8
  %6 = alloca i64, align 8
  store ptr %0, ptr %4, align 8
  store ptr %1, ptr %5, align 8
  store i64 %2, ptr %6, align 8
  %7 = load ptr, ptr %4, align 8
  %8 = getelementptr inbounds %struct.png_struct_def, ptr %7, i32 0, i32 7
  %9 = load ptr, ptr %8, align 8
  %10 = icmp ne ptr %9, null
  br i1 %10, label %11, label %18

11:                                               ; preds = %3
  %12 = load ptr, ptr %4, align 8
  %13 = getelementptr inbounds %struct.png_struct_def, ptr %12, i32 0, i32 7
  %14 = load ptr, ptr %13, align 8
  %15 = load ptr, ptr %4, align 8
  %16 = load ptr, ptr %5, align 8
  %17 = load i64, ptr %6, align 8
  call void %14(ptr noundef %15, ptr noundef %16, i64 noundef %17)
  br label %20

18:                                               ; preds = %3
  %19 = load ptr, ptr %4, align 8
  call void @png_error(ptr noundef %19, ptr noundef @.str) #3
  unreachable

20:                                               ; preds = %11
  ret void
}

; Function Attrs: noreturn
declare void @png_error(ptr noundef, ptr noundef) #1

; Function Attrs: nounwind uwtable
define void @png_default_write_data(ptr noundef %0, ptr noundef %1, i64 noundef %2) #0 {
  %4 = alloca ptr, align 8
  %5 = alloca ptr, align 8
  %6 = alloca i64, align 8
  %7 = alloca i64, align 8
  store ptr %0, ptr %4, align 8
  store ptr %1, ptr %5, align 8
  store i64 %2, ptr %6, align 8
  %8 = load ptr, ptr %4, align 8
  %9 = icmp eq ptr %8, null
  br i1 %9, label %10, label %11

10:                                               ; preds = %3
  br label %23

11:                                               ; preds = %3
  %12 = load ptr, ptr %5, align 8
  %13 = load i64, ptr %6, align 8
  %14 = load ptr, ptr %4, align 8
  %15 = getelementptr inbounds %struct.png_struct_def, ptr %14, i32 0, i32 9
  %16 = load ptr, ptr %15, align 8
  %17 = call i64 @fwrite(ptr noundef %12, i64 noundef 1, i64 noundef %13, ptr noundef %16)
  store i64 %17, ptr %7, align 8
  %18 = load i64, ptr %7, align 8
  %19 = load i64, ptr %6, align 8
  %20 = icmp ne i64 %18, %19
  br i1 %20, label %21, label %23

21:                                               ; preds = %11
  %22 = load ptr, ptr %4, align 8
  call void @png_error(ptr noundef %22, ptr noundef @.str.1) #3
  unreachable

23:                                               ; preds = %11, %10
  ret void
}

declare i64 @fwrite(ptr noundef, i64 noundef, i64 noundef, ptr noundef) #2

; Function Attrs: nounwind uwtable
define void @png_flush(ptr noalias noundef %0) #0 {
  %2 = alloca ptr, align 8
  store ptr %0, ptr %2, align 8
  %3 = load ptr, ptr %2, align 8
  %4 = getelementptr inbounds %struct.png_struct_def, ptr %3, i32 0, i32 76
  %5 = load ptr, ptr %4, align 8
  %6 = icmp ne ptr %5, null
  br i1 %6, label %7, label %12

7:                                                ; preds = %1
  %8 = load ptr, ptr %2, align 8
  %9 = getelementptr inbounds %struct.png_struct_def, ptr %8, i32 0, i32 76
  %10 = load ptr, ptr %9, align 8
  %11 = load ptr, ptr %2, align 8
  call void %10(ptr noundef %11)
  br label %12

12:                                               ; preds = %7, %1
  ret void
}

; Function Attrs: nounwind uwtable
define void @png_default_flush(ptr noundef %0) #0 {
  %2 = alloca ptr, align 8
  %3 = alloca ptr, align 8
  store ptr %0, ptr %2, align 8
  %4 = load ptr, ptr %2, align 8
  %5 = icmp eq ptr %4, null
  br i1 %5, label %6, label %7

6:                                                ; preds = %1
  br label %13

7:                                                ; preds = %1
  %8 = load ptr, ptr %2, align 8
  %9 = getelementptr inbounds %struct.png_struct_def, ptr %8, i32 0, i32 9
  %10 = load ptr, ptr %9, align 8
  store ptr %10, ptr %3, align 8
  %11 = load ptr, ptr %3, align 8
  %12 = call i32 @fflush(ptr noundef %11)
  br label %13

13:                                               ; preds = %7, %6
  ret void
}

declare i32 @fflush(ptr noundef) #2

; Function Attrs: nounwind uwtable
define void @png_set_write_fn(ptr noalias noundef %0, ptr noundef %1, ptr noundef %2, ptr noundef %3) #0 {
  %5 = alloca ptr, align 8
  %6 = alloca ptr, align 8
  %7 = alloca ptr, align 8
  %8 = alloca ptr, align 8
  store ptr %0, ptr %5, align 8
  store ptr %1, ptr %6, align 8
  store ptr %2, ptr %7, align 8
  store ptr %3, ptr %8, align 8
  %9 = load ptr, ptr %5, align 8
  %10 = icmp eq ptr %9, null
  br i1 %10, label %11, label %12

11:                                               ; preds = %4
  br label %44

12:                                               ; preds = %4
  %13 = load ptr, ptr %6, align 8
  %14 = load ptr, ptr %5, align 8
  %15 = getelementptr inbounds %struct.png_struct_def, ptr %14, i32 0, i32 9
  store ptr %13, ptr %15, align 8
  %16 = load ptr, ptr %7, align 8
  %17 = icmp ne ptr %16, null
  br i1 %17, label %18, label %22

18:                                               ; preds = %12
  %19 = load ptr, ptr %7, align 8
  %20 = load ptr, ptr %5, align 8
  %21 = getelementptr inbounds %struct.png_struct_def, ptr %20, i32 0, i32 7
  store ptr %19, ptr %21, align 8
  br label %25

22:                                               ; preds = %12
  %23 = load ptr, ptr %5, align 8
  %24 = getelementptr inbounds %struct.png_struct_def, ptr %23, i32 0, i32 7
  store ptr @png_default_write_data, ptr %24, align 8
  br label %25

25:                                               ; preds = %22, %18
  %26 = load ptr, ptr %8, align 8
  %27 = icmp ne ptr %26, null
  br i1 %27, label %28, label %32

28:                                               ; preds = %25
  %29 = load ptr, ptr %8, align 8
  %30 = load ptr, ptr %5, align 8
  %31 = getelementptr inbounds %struct.png_struct_def, ptr %30, i32 0, i32 76
  store ptr %29, ptr %31, align 8
  br label %35

32:                                               ; preds = %25
  %33 = load ptr, ptr %5, align 8
  %34 = getelementptr inbounds %struct.png_struct_def, ptr %33, i32 0, i32 76
  store ptr @png_default_flush, ptr %34, align 8
  br label %35

35:                                               ; preds = %32, %28
  %36 = load ptr, ptr %5, align 8
  %37 = getelementptr inbounds %struct.png_struct_def, ptr %36, i32 0, i32 8
  %38 = load ptr, ptr %37, align 8
  %39 = icmp ne ptr %38, null
  br i1 %39, label %40, label %44

40:                                               ; preds = %35
  %41 = load ptr, ptr %5, align 8
  %42 = getelementptr inbounds %struct.png_struct_def, ptr %41, i32 0, i32 8
  store ptr null, ptr %42, align 8
  %43 = load ptr, ptr %5, align 8
  call void @png_warning(ptr noundef %43, ptr noundef @.str.2)
  br label %44

44:                                               ; preds = %40, %35, %11
  ret void
}

declare void @png_warning(ptr noundef, ptr noundef) #2


!llvm.module.flags = !{!0, !1, !2, !3}

!0 = !{i32 1, !"wchar_size", i32 4}
!1 = !{i32 8, !"PIC Level", i32 2}
!2 = !{i32 7, !"uwtable", i32 2}
!3 = !{i32 7, !"frame-pointer", i32 2}
